target datalayout = "e-m:e-p270:32:32-p271:32:32-p272:64:64-i64:64-i128:128-f80:128-n8:16:32:64-S128"
target triple = "x86_64-pc-linux-gnu"

@.str.206 = private unnamed_addr constant [16 x i8] c"remotes.default\00", align 1

; Function Attrs: nounwind uwtable
define internal i32 @get_remote_default(ptr noundef %0, ptr noundef %1, ptr noundef %2, ptr noundef %3) #0 {
  %5 = alloca ptr, align 8
  %6 = alloca ptr, align 8
  %7 = alloca ptr, align 8
  %8 = alloca ptr, align 8
  %9 = alloca ptr, align 8
  store ptr %0, ptr %5, align 8, !tbaa !11
  store ptr %1, ptr %6, align 8, !tbaa !11
  store ptr %2, ptr %7, align 8, !tbaa !153
  store ptr %3, ptr %8, align 8, !tbaa !15
  %10 = load ptr, ptr %5, align 8, !tbaa !11
  %11 = call i32 @strcmp(ptr noundef %10, ptr noundef @.str.206) #14
  %12 = icmp eq i32 %11, 0
  br i1 %12, label %13, label %16

13:                                               ; preds = %4
  call void @llvm.lifetime.start.p0(i64 8, ptr %9) #11
  %14 = load ptr, ptr %8, align 8, !tbaa !15
  store ptr %14, ptr %9, align 8, !tbaa !129
  %15 = load ptr, ptr %9, align 8, !tbaa !129
  store i32 1, ptr %15, align 4, !tbaa !4
  call void @llvm.lifetime.end.p0(i64 8, ptr %9) #11
  br label %16

16:                                               ; preds = %13, %4
  ret i32 0
}