; Function Attrs: mustprogress nofree nounwind willreturn memory(argmem: readwrite) uwtable
define internal noundef i32 @get_remote_default(ptr noundef readonly captures(none) %0, ptr readnone captures(none) %1, ptr readnone captures(none) %2, ptr noundef writeonly captures(none) %3) #16 {
  %5 = tail call i32 @strcmp(ptr noundef nonnull dereferenceable(1) %0, ptr noundef nonnull dereferenceable(16) @.str.206) #21
  %6 = icmp eq i32 %5, 0
  br i1 %6, label %7, label %8

7:                                                ; preds = %4
  store i32 1, ptr %3, align 4, !tbaa !21
  br label %8

8:                                                ; preds = %7, %4
  ret i32 0
}